target datalayout = "e-m:e-p270:32:32-p271:32:32-p272:64:64-i64:64-i128:128-f80:128-n8:16:32:64-S128"
target triple = "x86_64-pc-linux-gnu"

%struct.rb_shape_tree_t = type { ptr, ptr, i32, ptr, i32 }
%struct.rb_shape = type { ptr, i64, i32, i32, i8, i8, i32, ptr }

@rb_shape_tree_ptr = hidden global ptr null, align 8

; Function Attrs: inlinehint nounwind sspstrong uwtable
define internal ptr @rb_current_shape_tree() #1 {
  %1 = load ptr, ptr @rb_shape_tree_ptr, align 8, !tbaa !15
  ret ptr %1
}

; Function Attrs: nounwind sspstrong uwtable
define hidden ptr @rb_shape_get_shape_by_id(i32 noundef %0) #0 {
  %2 = alloca i32, align 4
  %3 = alloca ptr, align 8
  store i32 %0, ptr %2, align 4, !tbaa !21
  call void @llvm.lifetime.start.p0(i64 8, ptr %3) #14
  %4 = call ptr @rb_current_shape_tree()
  %5 = getelementptr inbounds nuw %struct.rb_shape_tree_t, ptr %4, i32 0, i32 0
  %6 = load ptr, ptr %5, align 8, !tbaa !17
  %7 = load i32, ptr %2, align 4, !tbaa !21
  %8 = zext i32 %7 to i64
  %9 = getelementptr %struct.rb_shape, ptr %6, i64 %8
  store ptr %9, ptr %3, align 8, !tbaa !16
  %10 = load ptr, ptr %3, align 8, !tbaa !16
  call void @llvm.lifetime.end.p0(i64 8, ptr %3) #14
  ret ptr %10
}

; Function Attrs: nounwind sspstrong uwtable
define hidden ptr @rb_shape_get_parent(ptr noundef %0) #0 {
  %2 = alloca ptr, align 8
  store ptr %0, ptr %2, align 8, !tbaa !16
  %3 = load ptr, ptr %2, align 8, !tbaa !16
  %4 = getelementptr inbounds nuw %struct.rb_shape, ptr %3, i32 0, i32 6
  %5 = load i32, ptr %4, align 4, !tbaa !22
  %6 = call ptr @rb_shape_get_shape_by_id(i32 noundef %5)
  ret ptr %6
}

; Function Attrs: nounwind sspstrong uwtable
define internal ptr @remove_shape_recursive(ptr noundef %0, i64 noundef %1, ptr noundef %2) #0 {
  %4 = alloca ptr, align 8
  %5 = alloca ptr, align 8
  %6 = alloca i64, align 8
  %7 = alloca ptr, align 8
  %8 = alloca ptr, align 8
  %9 = alloca i32, align 4
  %10 = alloca i8, align 1
  %11 = alloca ptr, align 8
  store ptr %0, ptr %5, align 8, !tbaa !16
  store i64 %1, ptr %6, align 8, !tbaa !26
  store ptr %2, ptr %7, align 8, !tbaa !41
  %12 = load ptr, ptr %5, align 8, !tbaa !16
  %13 = getelementptr inbounds nuw %struct.rb_shape, ptr %12, i32 0, i32 6
  %14 = load i32, ptr %13, align 4, !tbaa !22
  %15 = zext i32 %14 to i64
  %16 = icmp eq i64 %15, 4294967295
  br i1 %16, label %17, label %18

17:                                               ; preds = %3
  store ptr null, ptr %4, align 8
  br label %85

18:                                               ; preds = %3
  %19 = load ptr, ptr %5, align 8, !tbaa !16
  %20 = getelementptr inbounds nuw %struct.rb_shape, ptr %19, i32 0, i32 4
  %21 = load i8, ptr %20, align 8, !tbaa !28
  %22 = zext i8 %21 to i32
  %23 = icmp eq i32 %22, 1
  br i1 %23, label %24, label %35

24:                                               ; preds = %18
  %25 = load ptr, ptr %5, align 8, !tbaa !16
  %26 = getelementptr inbounds nuw %struct.rb_shape, ptr %25, i32 0, i32 1
  %27 = load i64, ptr %26, align 8, !tbaa !43
  %28 = load i64, ptr %6, align 8, !tbaa !26
  %29 = icmp eq i64 %27, %28
  br i1 %29, label %30, label %35

30:                                               ; preds = %24
  %31 = load ptr, ptr %5, align 8, !tbaa !16
  %32 = load ptr, ptr %7, align 8, !tbaa !41
  store ptr %31, ptr %32, align 8, !tbaa !16
  %33 = load ptr, ptr %5, align 8, !tbaa !16
  %34 = call ptr @rb_shape_get_parent(ptr noundef %33)
  store ptr %34, ptr %4, align 8
  br label %85

35:                                               ; preds = %24, %18
  call void @llvm.lifetime.start.p0(i64 8, ptr %8) #14
  %36 = load ptr, ptr %5, align 8, !tbaa !16
  %37 = call ptr @rb_shape_get_parent(ptr noundef %36)
  %38 = load i64, ptr %6, align 8, !tbaa !26
  %39 = load ptr, ptr %7, align 8, !tbaa !41
  %40 = call ptr @remove_shape_recursive(ptr noundef %37, i64 noundef %38, ptr noundef %39)
  store ptr %40, ptr %8, align 8, !tbaa !16
  %41 = load ptr, ptr %8, align 8, !tbaa !16
  %42 = icmp ne ptr %41, null
  br i1 %42, label %43, label %83

43:                                               ; preds = %35
  %44 = load ptr, ptr %8, align 8, !tbaa !16
  %45 = getelementptr inbounds nuw %struct.rb_shape, ptr %44, i32 0, i32 4
  %46 = load i8, ptr %45, align 8, !tbaa !28
  %47 = zext i8 %46 to i32
  %48 = icmp eq i32 %47, 4
  %49 = xor i1 %48, true
  %50 = xor i1 %49, true
  %51 = zext i1 %50 to i32
  %52 = sext i32 %51 to i64
  %53 = call i64 @llvm.expect.i64(i64 %52, i64 0)
  %54 = icmp ne i64 %53, 0
  br i1 %54, label %55, label %57

55:                                               ; preds = %43
  %56 = load ptr, ptr %8, align 8, !tbaa !16
  store ptr %56, ptr %4, align 8
  store i32 1, ptr %9, align 4
  br label %84

57:                                               ; preds = %43
  call void @llvm.lifetime.start.p0(i64 1, ptr %10) #14
  call void @llvm.lifetime.start.p0(i64 8, ptr %11) #14
  %58 = load ptr, ptr %8, align 8, !tbaa !16
  %59 = load ptr, ptr %5, align 8, !tbaa !16
  %60 = getelementptr inbounds nuw %struct.rb_shape, ptr %59, i32 0, i32 1
  %61 = load i64, ptr %60, align 8, !tbaa !43
  %62 = load ptr, ptr %5, align 8, !tbaa !16
  %63 = getelementptr inbounds nuw %struct.rb_shape, ptr %62, i32 0, i32 4
  %64 = load i8, ptr %63, align 8, !tbaa !28
  %65 = zext i8 %64 to i32
  %66 = call ptr @get_next_shape_internal(ptr noundef %58, i64 noundef %61, i32 noundef %65, ptr noundef %10, i1 noundef zeroext true)
  store ptr %66, ptr %11, align 8, !tbaa !16
  %67 = load ptr, ptr %11, align 8, !tbaa !16
  %68 = getelementptr inbounds nuw %struct.rb_shape, ptr %67, i32 0, i32 4
  %69 = load i8, ptr %68, align 8, !tbaa !28
  %70 = zext i8 %69 to i32
  %71 = icmp eq i32 %70, 4
  %72 = xor i1 %71, true
  %73 = xor i1 %72, true
  %74 = zext i1 %73 to i32
  %75 = sext i32 %74 to i64
  %76 = call i64 @llvm.expect.i64(i64 %75, i64 0)
  %77 = icmp ne i64 %76, 0
  br i1 %77, label %78, label %80

78:                                               ; preds = %57
  %79 = load ptr, ptr %11, align 8, !tbaa !16
  store ptr %79, ptr %4, align 8
  store i32 1, ptr %9, align 4
  br label %82

80:                                               ; preds = %57
  %81 = load ptr, ptr %11, align 8, !tbaa !16
  store ptr %81, ptr %4, align 8
  store i32 1, ptr %9, align 4
  br label %82

82:                                               ; preds = %80, %78
  call void @llvm.lifetime.end.p0(i64 8, ptr %11) #14
  call void @llvm.lifetime.end.p0(i64 1, ptr %10) #14
  br label %84

83:                                               ; preds = %35
  store ptr null, ptr %4, align 8
  store i32 1, ptr %9, align 4
  br label %84

84:                                               ; preds = %83, %82, %55
  call void @llvm.lifetime.end.p0(i64 8, ptr %8) #14
  br label %85

85:                                               ; preds = %84, %30, %17
  %86 = load ptr, ptr %4, align 8
  ret ptr %86
}