; Function Attrs: nounwind sspstrong uwtable
define internal fastcc ptr @remove_shape_recursive(ptr noundef %0, i64 noundef %1, ptr noundef nonnull writeonly captures(none) %2) unnamed_addr #1 {
  %4 = alloca i8, align 1
  %5 = getelementptr inbounds nuw i8, ptr %0, i64 28
  %6 = load i32, ptr %5, align 4, !tbaa !20
  %7 = icmp eq i32 %6, -1
  br i1 %7, label %37, label %8

8:                                                ; preds = %3
  %9 = getelementptr inbounds nuw i8, ptr %0, i64 24
  %10 = load i8, ptr %9, align 8, !tbaa !27
  %11 = icmp eq i8 %10, 1
  br i1 %11, label %12, label %21

12:                                               ; preds = %8
  %13 = getelementptr inbounds nuw i8, ptr %0, i64 8
  %14 = load i64, ptr %13, align 8, !tbaa !42
  %15 = icmp eq i64 %14, %1
  br i1 %15, label %16, label %21

16:                                               ; preds = %12
  store ptr %0, ptr %2, align 8, !tbaa !29
  %17 = load ptr, ptr @rb_shape_tree_ptr, align 8, !tbaa !7
  %18 = load ptr, ptr %17, align 8, !tbaa !16
  %19 = zext i32 %6 to i64
  %20 = getelementptr %struct.rb_shape, ptr %18, i64 %19
  br label %37

21:                                               ; preds = %12, %8
  %22 = load ptr, ptr @rb_shape_tree_ptr, align 8, !tbaa !7
  %23 = load ptr, ptr %22, align 8, !tbaa !16
  %24 = zext i32 %6 to i64
  %25 = getelementptr %struct.rb_shape, ptr %23, i64 %24
  %26 = tail call fastcc ptr @remove_shape_recursive(ptr noundef %25, i64 noundef %1, ptr noundef %2)
  %.not = icmp eq ptr %26, null
  br i1 %.not, label %37, label %27

27:                                               ; preds = %21
  %28 = getelementptr inbounds nuw i8, ptr %26, i64 24
  %29 = load i8, ptr %28, align 8, !tbaa !27
  %30 = icmp eq i8 %29, 4
  br i1 %30, label %37, label %31, !prof !28

31:                                               ; preds = %27
  call void @llvm.lifetime.start.p0(i64 1, ptr nonnull %4) #15
  %32 = getelementptr inbounds nuw i8, ptr %0, i64 8
  %33 = load i64, ptr %32, align 8, !tbaa !42
  %34 = load i8, ptr %9, align 8, !tbaa !27
  %35 = zext i8 %34 to i32
  %36 = call fastcc ptr @get_next_shape_internal(ptr noundef nonnull %26, i64 noundef %33, i32 noundef %35, ptr noundef %4, i1 noundef zeroext true)
  call void @llvm.lifetime.end.p0(i64 1, ptr nonnull %4) #15
  br label %37

37:                                               ; preds = %31, %27, %21, %3, %16
  %.0 = phi ptr [ %20, %16 ], [ null, %3 ], [ %36, %31 ], [ %26, %27 ], [ null, %21 ]
  ret ptr %.0
}